; ModuleID = '22/780.c'
source_filename = "22/780.c"
target datalayout = "e-m:e-p270:32:32-p271:32:32-p272:64:64-i64:64-f80:128-n8:16:32:64-S128"
target triple = "x86_64-pc-linux-gnu"

@.str = private unnamed_addr constant [3 x i8] c"No\00", align 1
@.str.1 = private unnamed_addr constant [3 x i8] c"%d\00", align 1

; Function Attrs: noinline nounwind uwtable
define dso_local i32 @main() #0 {
  %1 = alloca i32, align 4
  %2 = alloca [300 x i32], align 16
  %3 = alloca [5 x i32], align 16
  %4 = alloca i32, align 4
  %5 = alloca i32, align 4
  %6 = alloca i32, align 4
  %7 = alloca i32, align 4
  %8 = alloca i32, align 4
  %9 = alloca i32, align 4
  %10 = alloca i32, align 4
  store i32 0, i32* %1, align 4
  %11 = bitcast [300 x i32]* %2 to i8*
  call void @llvm.memset.p0i8.i64(i8* align 16 %11, i8 0, i64 1200, i1 false)
  %12 = bitcast [5 x i32]* %3 to i8*
  call void @llvm.memset.p0i8.i64(i8* align 16 %12, i8 0, i64 20, i1 false)
  store i32 1, i32* %9, align 4
  store i32 0, i32* %4, align 4
  br label %13

13:                                               ; preds = %35, %0
  %14 = load i32, i32* %4, align 4
  %15 = icmp sle i32 %14, 300
  br i1 %15, label %16, label %38

16:                                               ; preds = %13
  store i32 0, i32* %5, align 4
  br label %17

17:                                               ; preds = %24, %16
  %18 = call i32 @getchar()
  store i32 %18, i32* %6, align 4
  %19 = icmp ne i32 %18, 44
  br i1 %19, label %20, label %34

20:                                               ; preds = %17
  %21 = load i32, i32* %6, align 4
  %22 = icmp eq i32 %21, 10
  br i1 %22, label %23, label %24

23:                                               ; preds = %20
  br label %39

24:                                               ; preds = %20
  %25 = load i32, i32* %5, align 4
  %26 = mul nsw i32 %25, 10
  %27 = load i32, i32* %6, align 4
  %28 = add nsw i32 %26, %27
  %29 = sub nsw i32 %28, 48
  store i32 %29, i32* %5, align 4
  %30 = load i32, i32* %5, align 4
  %31 = load i32, i32* %4, align 4
  %32 = sext i32 %31 to i64
  %33 = getelementptr inbounds [300 x i32], [300 x i32]* %2, i64 0, i64 %32
  store i32 %30, i32* %33, align 4
  br label %17

34:                                               ; preds = %17
  br label %35

35:                                               ; preds = %34
  %36 = load i32, i32* %4, align 4
  %37 = add nsw i32 %36, 1
  store i32 %37, i32* %4, align 4
  br label %13

38:                                               ; preds = %13
  br label %39

39:                                               ; preds = %38, %23
  %40 = load i32, i32* %4, align 4
  store i32 %40, i32* %10, align 4
  store i32 1, i32* %4, align 4
  br label %41

41:                                               ; preds = %58, %39
  %42 = load i32, i32* %4, align 4
  %43 = load i32, i32* %10, align 4
  %44 = icmp sle i32 %42, %43
  br i1 %44, label %45, label %61

45:                                               ; preds = %41
  %46 = load i32, i32* %4, align 4
  %47 = sext i32 %46 to i64
  %48 = getelementptr inbounds [300 x i32], [300 x i32]* %2, i64 0, i64 %47
  %49 = load i32, i32* %48, align 4
  %50 = load i32, i32* %4, align 4
  %51 = sub nsw i32 %50, 1
  %52 = sext i32 %51 to i64
  %53 = getelementptr inbounds [300 x i32], [300 x i32]* %2, i64 0, i64 %52
  %54 = load i32, i32* %53, align 4
  %55 = icmp ne i32 %49, %54
  br i1 %55, label %56, label %57

56:                                               ; preds = %45
  store i32 0, i32* %9, align 4
  br label %57

57:                                               ; preds = %56, %45
  br label %58

58:                                               ; preds = %57
  %59 = load i32, i32* %4, align 4
  %60 = add nsw i32 %59, 1
  store i32 %60, i32* %4, align 4
  br label %41

61:                                               ; preds = %41
  %62 = load i32, i32* %9, align 4
  %63 = icmp eq i32 %62, 1
  br i1 %63, label %64, label %66

64:                                               ; preds = %61
  %65 = call i32 (i8*, ...) @printf(i8* getelementptr inbounds ([3 x i8], [3 x i8]* @.str, i64 0, i64 0))
  br label %129

66:                                               ; preds = %61
  %67 = getelementptr inbounds [300 x i32], [300 x i32]* %2, i64 0, i64 1
  %68 = load i32, i32* %67, align 4
  %69 = icmp eq i32 %68, 0
  br i1 %69, label %70, label %72

70:                                               ; preds = %66
  %71 = call i32 (i8*, ...) @printf(i8* getelementptr inbounds ([3 x i8], [3 x i8]* @.str, i64 0, i64 0))
  br label %128

72:                                               ; preds = %66
  %73 = getelementptr inbounds [300 x i32], [300 x i32]* %2, i64 0, i64 0
  %74 = load i32, i32* %73, align 16
  store i32 %74, i32* %7, align 4
  store i32 1, i32* %4, align 4
  br label %75

75:                                               ; preds = %92, %72
  %76 = load i32, i32* %4, align 4
  %77 = load i32, i32* %10, align 4
  %78 = icmp sle i32 %76, %77
  br i1 %78, label %79, label %95

79:                                               ; preds = %75
  %80 = load i32, i32* %4, align 4
  %81 = sext i32 %80 to i64
  %82 = getelementptr inbounds [300 x i32], [300 x i32]* %2, i64 0, i64 %81
  %83 = load i32, i32* %82, align 4
  %84 = load i32, i32* %7, align 4
  %85 = icmp sgt i32 %83, %84
  br i1 %85, label %86, label %91

86:                                               ; preds = %79
  %87 = load i32, i32* %4, align 4
  %88 = sext i32 %87 to i64
  %89 = getelementptr inbounds [300 x i32], [300 x i32]* %2, i64 0, i64 %88
  %90 = load i32, i32* %89, align 4
  store i32 %90, i32* %7, align 4
  br label %91

91:                                               ; preds = %86, %79
  br label %92

92:                                               ; preds = %91
  %93 = load i32, i32* %4, align 4
  %94 = add nsw i32 %93, 1
  store i32 %94, i32* %4, align 4
  br label %75

95:                                               ; preds = %75
  store i32 0, i32* %8, align 4
  store i32 0, i32* %4, align 4
  br label %96

96:                                               ; preds = %122, %95
  %97 = load i32, i32* %4, align 4
  %98 = load i32, i32* %10, align 4
  %99 = icmp sle i32 %97, %98
  br i1 %99, label %100, label %125

100:                                              ; preds = %96
  %101 = load i32, i32* %4, align 4
  %102 = sext i32 %101 to i64
  %103 = getelementptr inbounds [300 x i32], [300 x i32]* %2, i64 0, i64 %102
  %104 = load i32, i32* %103, align 4
  %105 = load i32, i32* %7, align 4
  %106 = icmp eq i32 %104, %105
  br i1 %106, label %107, label %108

107:                                              ; preds = %100
  br label %122

108:                                              ; preds = %100
  %109 = load i32, i32* %4, align 4
  %110 = sext i32 %109 to i64
  %111 = getelementptr inbounds [300 x i32], [300 x i32]* %2, i64 0, i64 %110
  %112 = load i32, i32* %111, align 4
  %113 = load i32, i32* %8, align 4
  %114 = icmp sgt i32 %112, %113
  br i1 %114, label %115, label %120

115:                                              ; preds = %108
  %116 = load i32, i32* %4, align 4
  %117 = sext i32 %116 to i64
  %118 = getelementptr inbounds [300 x i32], [300 x i32]* %2, i64 0, i64 %117
  %119 = load i32, i32* %118, align 4
  store i32 %119, i32* %8, align 4
  br label %120

120:                                              ; preds = %115, %108
  br label %121

121:                                              ; preds = %120
  br label %122

122:                                              ; preds = %121, %107
  %123 = load i32, i32* %4, align 4
  %124 = add nsw i32 %123, 1
  store i32 %124, i32* %4, align 4
  br label %96

125:                                              ; preds = %96
  %126 = load i32, i32* %8, align 4
  %127 = call i32 (i8*, ...) @printf(i8* getelementptr inbounds ([3 x i8], [3 x i8]* @.str.1, i64 0, i64 0), i32 %126)
  br label %128

128:                                              ; preds = %125, %70
  br label %129

129:                                              ; preds = %128, %64
  ret i32 0
}

; Function Attrs: argmemonly nounwind willreturn
declare void @llvm.memset.p0i8.i64(i8* nocapture writeonly, i8, i64, i1 immarg) #1

declare dso_local i32 @getchar() #2

declare dso_local i32 @printf(i8*, ...) #2


!llvm.module.flags = !{!0}
!llvm.ident = !{!1}

!0 = !{i32 1, !"wchar_size", i32 4}
!1 = !{!"clang version 10.0.0-4ubuntu1 "}
